target datalayout = "e-m:e-p270:32:32-p271:32:32-p272:64:64-i64:64-i128:128-f80:128-n8:16:32:64-S128"
target triple = "x86_64-pc-linux-gnu"

%struct._zend_executor_globals = type { %struct._zval_struct, %struct._zval_struct, [32 x ptr], ptr, ptr, %struct._zend_array, %struct._zend_array, ptr, i32, i32, ptr, ptr, ptr, ptr, ptr, ptr, i64, ptr, ptr, i32, i32, i64, i32, i32, i32, i8, i8, %struct.zend_atomic_bool_s, %struct.zend_atomic_bool_s, ptr, i64, ptr, ptr, %struct._zend_array, %struct._zend_array, i32, i8, %struct._zval_struct, %struct._zval_struct, %struct._zend_stack, %struct._zend_stack, %struct._zend_stack, ptr, i32, i32, i64, ptr, ptr, ptr, %struct._zend_objects_store, ptr, ptr, ptr, [3 x %struct._zend_op], ptr, i8, i8, i64, i32, i32, ptr, [16 x %struct._HashTableIterator], ptr, %union._zend_function, %struct._zend_op, %struct._zend_array, i64, %struct.zend_get_gc_buffer, ptr, ptr, ptr, i64, i8, i32, ptr, ptr, i64, %struct._zend_call_stack, i64, i64, [6 x ptr] }
%struct.zend_atomic_bool_s = type { i8 }
%struct._zval_struct = type { %union._zend_value, %union.anon, %union.anon.2 }
%union._zend_value = type { i64 }
%union.anon = type { i32 }
%union.anon.2 = type { i32 }
%struct._zend_stack = type { i32, i32, i32, ptr }
%struct._zend_objects_store = type { ptr, i32, i32, i32 }
%struct._HashTableIterator = type { ptr, i32, i32 }
%union._zend_function = type { %struct._zend_op_array }
%struct._zend_op_array = type { i8, [3 x i8], i32, ptr, ptr, ptr, i32, i32, ptr, ptr, ptr, ptr, i32, i32, i32, i32, ptr, ptr, ptr, ptr, ptr, i32, i32, ptr, ptr, ptr, i32, i32, i32, i32, ptr, ptr, [6 x ptr] }
%struct._zend_op = type { ptr, %union._znode_op, %union._znode_op, %union._znode_op, i32, i32, i8, i8, i8, i8 }
%union._znode_op = type { i32 }
%struct._zend_array = type { %struct._zend_refcounted_h, %union.anon.4, i32, %union.anon.6, i32, i32, i32, i32, i64, ptr }
%struct._zend_refcounted_h = type { i32, %union.anon.3 }
%union.anon.3 = type { i32 }
%union.anon.4 = type { i32 }
%union.anon.6 = type { ptr }
%struct.zend_get_gc_buffer = type { ptr, ptr, ptr }
%struct._zend_call_stack = type { ptr, i64 }
%struct._zend_object_iterator_funcs = type { ptr, ptr, ptr, ptr, ptr, ptr, ptr, ptr }
%struct._zend_execute_data = type { ptr, ptr, ptr, ptr, %struct._zval_struct, ptr, ptr, ptr, ptr }
%struct._zend_object = type { %struct._zend_refcounted_h, i32, ptr, ptr, ptr, [1 x %struct._zval_struct] }
%struct._zend_object_iterator = type { %struct._zend_object, %struct._zval_struct, ptr, i64 }
%struct._spl_dual_it_object = type { %struct.anon.8, %struct.anon.9, i32, %union.anon.10, %struct._zend_object }
%struct.anon.8 = type { %struct._zval_struct, ptr, ptr, ptr }
%struct.anon.9 = type { %struct._zval_struct, %struct._zval_struct, i64 }
%union.anon.10 = type { %struct.anon.12 }
%struct.anon.12 = type { i64, ptr, %struct._zval_struct, %struct._zval_struct }

@executor_globals = external global %struct._zend_executor_globals, align 8
@.str = private unnamed_addr constant [75 x i8] c"The object is in an invalid state as the parent constructor was not called\00", align 1
@.str.53 = private unnamed_addr constant [67 x i8] c"The inner constructor wasn't initialized with an iterator instance\00", align 1

; Function Attrs: nounwind uwtable
define internal void @spl_dual_it_next(ptr noundef %0, i32 noundef %1) #0 {
  %3 = alloca ptr, align 8
  %4 = alloca i32, align 4
  store ptr %0, ptr %3, align 8
  store i32 %1, ptr %4, align 4
  %5 = load i32, ptr %4, align 4
  %6 = icmp ne i32 %5, 0
  br i1 %6, label %7, label %9

7:                                                ; preds = %2
  %8 = load ptr, ptr %3, align 8
  call void @spl_dual_it_free(ptr noundef %8)
  br label %17

9:                                                ; preds = %2
  %10 = load ptr, ptr %3, align 8
  %11 = getelementptr inbounds %struct._spl_dual_it_object, ptr %10, i32 0, i32 0
  %12 = getelementptr inbounds %struct.anon.8, ptr %11, i32 0, i32 3
  %13 = load ptr, ptr %12, align 8
  %14 = icmp ne ptr %13, null
  br i1 %14, label %16, label %15

15:                                               ; preds = %9
  call void (ptr, ptr, ...) @zend_throw_error(ptr noundef null, ptr noundef @.str.53)
  br label %35

16:                                               ; preds = %9
  br label %17

17:                                               ; preds = %16, %7
  %18 = load ptr, ptr %3, align 8
  %19 = getelementptr inbounds %struct._spl_dual_it_object, ptr %18, i32 0, i32 0
  %20 = getelementptr inbounds %struct.anon.8, ptr %19, i32 0, i32 3
  %21 = load ptr, ptr %20, align 8
  %22 = getelementptr inbounds %struct._zend_object_iterator, ptr %21, i32 0, i32 2
  %23 = load ptr, ptr %22, align 8
  %24 = getelementptr inbounds %struct._zend_object_iterator_funcs, ptr %23, i32 0, i32 4
  %25 = load ptr, ptr %24, align 8
  %26 = load ptr, ptr %3, align 8
  %27 = getelementptr inbounds %struct._spl_dual_it_object, ptr %26, i32 0, i32 0
  %28 = getelementptr inbounds %struct.anon.8, ptr %27, i32 0, i32 3
  %29 = load ptr, ptr %28, align 8
  call void %25(ptr noundef %29)
  %30 = load ptr, ptr %3, align 8
  %31 = getelementptr inbounds %struct._spl_dual_it_object, ptr %30, i32 0, i32 1
  %32 = getelementptr inbounds %struct.anon.9, ptr %31, i32 0, i32 2
  %33 = load i64, ptr %32, align 8
  %34 = add nsw i64 %33, 1
  store i64 %34, ptr %32, align 8
  br label %35

35:                                               ; preds = %17, %15
  ret void
}

; Function Attrs: nounwind uwtable
define internal void @spl_filter_it_next(ptr noundef %0, ptr noundef %1) #0 {
  %3 = alloca ptr, align 8
  %4 = alloca ptr, align 8
  store ptr %0, ptr %3, align 8
  store ptr %1, ptr %4, align 8
  %5 = load ptr, ptr %4, align 8
  call void @spl_dual_it_next(ptr noundef %5, i32 noundef 1)
  %6 = load ptr, ptr %3, align 8
  %7 = load ptr, ptr %4, align 8
  call void @spl_filter_it_fetch(ptr noundef %6, ptr noundef %7)
  ret void
}

; Function Attrs: nounwind uwtable
define internal ptr @spl_dual_it_from_obj(ptr noundef %0) #0 {
  %2 = alloca ptr, align 8
  store ptr %0, ptr %2, align 8
  %3 = load ptr, ptr %2, align 8
  %4 = getelementptr inbounds i8, ptr %3, i64 -136
  ret ptr %4
}

; Function Attrs: nounwind uwtable
define hidden void @zim_FilterIterator_next(ptr noundef %0, ptr noundef %1) #0 {
  %3 = alloca ptr, align 8
  %4 = alloca ptr, align 8
  %5 = alloca ptr, align 8
  %6 = alloca ptr, align 8
  store ptr %0, ptr %3, align 8
  store ptr %1, ptr %4, align 8
  %7 = load ptr, ptr %3, align 8
  %8 = getelementptr inbounds %struct._zend_execute_data, ptr %7, i32 0, i32 4
  %9 = getelementptr inbounds %struct._zval_struct, ptr %8, i32 0, i32 2
  %10 = load i32, ptr %9, align 4
  %11 = icmp eq i32 %10, 0
  %12 = xor i1 %11, true
  %13 = xor i1 %12, true
  %14 = zext i1 %13 to i32
  %15 = sext i32 %14 to i64
  %16 = icmp ne i64 %15, 0
  br i1 %16, label %17, label %18

17:                                               ; preds = %2
  br label %19

18:                                               ; preds = %2
  call void @zend_wrong_parameters_none_error()
  br label %19

19:                                               ; preds = %18, %17
  %20 = phi i32 [ 0, %17 ], [ -1, %18 ]
  %21 = icmp eq i32 %20, -1
  br i1 %21, label %22, label %27

22:                                               ; preds = %19
  br label %23

23:                                               ; preds = %22
  %24 = load ptr, ptr getelementptr inbounds (%struct._zend_executor_globals, ptr @executor_globals, i32 0, i32 50), align 8
  %25 = icmp ne ptr %24, null
  call void @llvm.assume(i1 %25)
  br label %49

26:                                               ; No predecessors!
  br label %27

27:                                               ; preds = %26, %19
  br label %28

28:                                               ; preds = %27
  %29 = load ptr, ptr %3, align 8
  %30 = getelementptr inbounds %struct._zend_execute_data, ptr %29, i32 0, i32 4
  %31 = getelementptr inbounds %struct._zval_struct, ptr %30, i32 0, i32 0
  %32 = load ptr, ptr %31, align 8
  %33 = call ptr @spl_dual_it_from_obj(ptr noundef %32)
  store ptr %33, ptr %6, align 8
  %34 = load ptr, ptr %6, align 8
  %35 = getelementptr inbounds %struct._spl_dual_it_object, ptr %34, i32 0, i32 2
  %36 = load i32, ptr %35, align 8
  %37 = icmp eq i32 %36, -1
  br i1 %37, label %38, label %43

38:                                               ; preds = %28
  call void (ptr, ptr, ...) @zend_throw_error(ptr noundef null, ptr noundef @.str)
  br label %39

39:                                               ; preds = %38
  %40 = load ptr, ptr getelementptr inbounds (%struct._zend_executor_globals, ptr @executor_globals, i32 0, i32 50), align 8
  %41 = icmp ne ptr %40, null
  call void @llvm.assume(i1 %41)
  br label %49

42:                                               ; No predecessors!
  br label %43

43:                                               ; preds = %42, %28
  %44 = load ptr, ptr %6, align 8
  store ptr %44, ptr %5, align 8
  br label %45

45:                                               ; preds = %43
  %46 = load ptr, ptr %3, align 8
  %47 = getelementptr inbounds %struct._zend_execute_data, ptr %46, i32 0, i32 4
  %48 = load ptr, ptr %5, align 8
  call void @spl_filter_it_next(ptr noundef %47, ptr noundef %48)
  br label %49

49:                                               ; preds = %45, %39, %23
  ret void
}