; Function Attrs: nounwind uwtable
define hidden void @zim_FilterIterator_next(ptr nocapture noundef readonly %0, ptr nocapture readnone %1) #0 {
  %3 = getelementptr inbounds i8, ptr %0, i64 32
  %4 = getelementptr inbounds i8, ptr %0, i64 44
  %5 = load i32, ptr %4, align 4
  %.not = icmp eq i32 %5, 0
  br i1 %.not, label %.critedge, label %6

6:                                                ; preds = %2
  tail call void @zend_wrong_parameters_none_error() #10
  %7 = load ptr, ptr getelementptr inbounds (%struct._zend_executor_globals, ptr @executor_globals, i64 0, i32 50), align 8
  %8 = icmp ne ptr %7, null
  tail call void @llvm.assume(i1 %8)
  br label %25

.critedge:                                        ; preds = %2
  %9 = load ptr, ptr %3, align 8
  %10 = getelementptr inbounds i8, ptr %9, i64 -56
  %11 = load i32, ptr %10, align 8
  %12 = icmp eq i32 %11, -1
  br i1 %12, label %13, label %16

13:                                               ; preds = %.critedge
  tail call void (ptr, ptr, ...) @zend_throw_error(ptr noundef null, ptr noundef nonnull @.str) #10
  %14 = load ptr, ptr getelementptr inbounds (%struct._zend_executor_globals, ptr @executor_globals, i64 0, i32 50), align 8
  %15 = icmp ne ptr %14, null
  tail call void @llvm.assume(i1 %15)
  br label %25

16:                                               ; preds = %.critedge
  %17 = getelementptr inbounds i8, ptr %9, i64 -136
  tail call fastcc void @spl_dual_it_free(ptr noundef nonnull %17)
  %.phi.trans.insert.i.i = getelementptr inbounds i8, ptr %9, i64 -104
  %.pre.i.i = load ptr, ptr %.phi.trans.insert.i.i, align 8
  %18 = getelementptr inbounds i8, ptr %.pre.i.i, i64 72
  %19 = load ptr, ptr %18, align 8
  %20 = getelementptr inbounds i8, ptr %19, i64 32
  %21 = load ptr, ptr %20, align 8
  tail call void %21(ptr noundef %.pre.i.i) #10
  %22 = getelementptr inbounds i8, ptr %9, i64 -64
  %23 = load i64, ptr %22, align 8
  %24 = add nsw i64 %23, 1
  store i64 %24, ptr %22, align 8
  tail call fastcc void @spl_filter_it_fetch(ptr noundef nonnull %3, ptr noundef nonnull %17)
  br label %25

25:                                               ; preds = %16, %13, %6
  ret void
}